(dp1
cnumpy.core.multiarray
scalar
p2
(cnumpy
dtype
p3
(S'i4'
I0
I1
tRp4
(I3
S'<'
NNNI-1
I-1
I0
tbS'\x01\x00\x00\x00'
tRp5
(lp6
S'029'
p7
aS'033'
p8
asg2
(g4
S'\x02\x00\x00\x00'
tRp9
(lp10
S'047'
p11
aS'111'
p12
asg2
(g4
S'\x03\x00\x00\x00'
tRp13
(lp14
S'011'
p15
aS'050'
p16
aS'096'
p17
asg2
(g4
S'\x04\x00\x00\x00'
tRp18
(lp19
S'084'
p20
aS'097'
p21
asg2
(g4
S'\x05\x00\x00\x00'
tRp22
(lp23
S'052'
p24
aS'099'
p25
asg2
(g4
S'\x06\x00\x00\x00'
tRp26
(lp27
S'001'
p28
aS'002'
p29
aS'003'
p30
aS'005'
p31
aS'007'
p32
aS'008'
p33
aS'009'
p34
aS'010'
p35
aS'012'
p36
aS'013'
p37
aS'014'
p38
aS'015'
p39
aS'017'
p40
aS'019'
p41
aS'020'
p42
aS'022'
p43
aS'023'
p44
aS'024'
p45
aS'025'
p46
aS'026'
p47
aS'028'
p48
aS'031'
p49
aS'032'
p50
aS'034'
p51
aS'036'
p52
aS'037'
p53
aS'040'
p54
aS'041'
p55
aS'042'
p56
aS'043'
p57
aS'044'
p58
aS'045'
p59
aS'046'
p60
aS'048'
p61
aS'049'
p62
aS'054'
p63
aS'055'
p64
aS'056'
p65
aS'057'
p66
aS'058'
p67
aS'059'
p68
aS'060'
p69
aS'062'
p70
aS'063'
p71
aS'064'
p72
aS'066'
p73
aS'067'
p74
aS'069'
p75
aS'071'
p76
aS'073'
p77
aS'074'
p78
aS'075'
p79
aS'076'
p80
aS'077'
p81
aS'078'
p82
aS'080'
p83
aS'082'
p84
aS'083'
p85
aS'085'
p86
aS'086'
p87
aS'087'
p88
aS'088'
p89
aS'090'
p90
aS'092'
p91
aS'093'
p92
aS'094'
p93
aS'098'
p94
aS'102'
p95
aS'104'
p96
aS'105'
p97
aS'106'
p98
aS'107'
p99
aS'108'
p100
aS'109'
p101
aS'112'
p102
aS'113'
p103
aS'114'
p104
aS'115'
p105
aS'116'
p106
aS'117'
p107
aS'118'
p108
aS'119'
p109
aS'120'
p110
aS'122'
p111
aS'123'
p112
asg2
(g4
S'\x07\x00\x00\x00'
tRp113
(lp114
S'006'
p115
asg2
(g4
S'\x08\x00\x00\x00'
tRp116
(lp117
S'027'
p118
asg2
(g4
S'\t\x00\x00\x00'
tRp119
(lp120
S'079'
p121
asg2
(g4
S'\n\x00\x00\x00'
tRp122
(lp123
S'004'
p124
asg2
(g4
S'\x0b\x00\x00\x00'
tRp125
(lp126
S'070'
p127
asg2
(g4
S'\x0c\x00\x00\x00'
tRp128
(lp129
S'035'
p130
asg2
(g4
S'\r\x00\x00\x00'
tRp131
(lp132
S'089'
p133
asg2
(g4
S'\x0e\x00\x00\x00'
tRp134
(lp135
S'030'
p136
asg2
(g4
S'\x0f\x00\x00\x00'
tRp137
(lp138
S'021'
p139
asg2
(g4
S'\x10\x00\x00\x00'
tRp140
(lp141
S'081'
p142
asg2
(g4
S'\x11\x00\x00\x00'
tRp143
(lp144
S'039'
p145
asg2
(g4
S'\x12\x00\x00\x00'
tRp146
(lp147
S'101'
p148
asg2
(g4
S'\x13\x00\x00\x00'
tRp149
(lp150
S'072'
p151
asg2
(g4
S'\x14\x00\x00\x00'
tRp152
(lp153
S'068'
p154
asg2
(g4
S'\x15\x00\x00\x00'
tRp155
(lp156
S'091'
p157
asg2
(g4
S'\x16\x00\x00\x00'
tRp158
(lp159
S'051'
p160
asg2
(g4
S'\x17\x00\x00\x00'
tRp161
(lp162
S'053'
p163
asg2
(g4
S'\x18\x00\x00\x00'
tRp164
(lp165
S'100'
p166
asS'discard'
p167
(lp168
S'000'
p169
aS'016'
p170
aS'018'
p171
aS'038'
p172
aS'061'
p173
aS'065'
p174
aS'095'
p175
aS'103'
p176
aS'110'
p177
aS'121'
p178
as.